; ModuleID = 'source-C-CXX/53/1521.cpp'
source_filename = "source-C-CXX/53/1521.cpp"
target datalayout = "e-m:e-p270:32:32-p271:32:32-p272:64:64-i64:64-f80:128-n8:16:32:64-S128"
target triple = "x86_64-pc-linux-gnu"

%"class.std::ios_base::Init" = type { i8 }
%"class.std::basic_istream" = type { i32 (...)**, i64, %"class.std::basic_ios" }
%"class.std::basic_ios" = type { %"class.std::ios_base", %"class.std::basic_ostream"*, i8, i8, %"class.std::basic_streambuf"*, %"class.std::ctype"*, %"class.std::num_put"*, %"class.std::num_get"* }
%"class.std::ios_base" = type { i32 (...)**, i64, i64, i32, i32, i32, %"struct.std::ios_base::_Callback_list"*, %"struct.std::ios_base::_Words", [8 x %"struct.std::ios_base::_Words"], i32, %"struct.std::ios_base::_Words"*, %"class.std::locale" }
%"struct.std::ios_base::_Callback_list" = type { %"struct.std::ios_base::_Callback_list"*, void (i32, %"class.std::ios_base"*, i32)*, i32, i32 }
%"struct.std::ios_base::_Words" = type { i8*, i64 }
%"class.std::locale" = type { %"class.std::locale::_Impl"* }
%"class.std::locale::_Impl" = type { i32, %"class.std::locale::facet"**, i64, %"class.std::locale::facet"**, i8** }
%"class.std::locale::facet" = type <{ i32 (...)**, i32, [4 x i8] }>
%"class.std::basic_ostream" = type { i32 (...)**, %"class.std::basic_ios" }
%"class.std::basic_streambuf" = type { i32 (...)**, i8*, i8*, i8*, i8*, i8*, i8*, %"class.std::locale" }
%"class.std::ctype" = type <{ %"class.std::locale::facet.base", [4 x i8], %struct.__locale_struct*, i8, [7 x i8], i32*, i32*, i16*, i8, [256 x i8], [256 x i8], i8, [6 x i8] }>
%"class.std::locale::facet.base" = type <{ i32 (...)**, i32 }>
%struct.__locale_struct = type { [13 x %struct.__locale_data*], i16*, i32*, i32*, [13 x i8*] }
%struct.__locale_data = type opaque
%"class.std::num_put" = type { %"class.std::locale::facet.base", [4 x i8] }
%"class.std::num_get" = type { %"class.std::locale::facet.base", [4 x i8] }

@_ZStL8__ioinit = internal global %"class.std::ios_base::Init" zeroinitializer, align 1
@__dso_handle = external hidden global i8
@_ZSt3cin = external global %"class.std::basic_istream", align 8
@_ZSt4cout = external global %"class.std::basic_ostream", align 8
@llvm.global_ctors = appending global [1 x { i32, void ()*, i8* }] [{ i32, void ()*, i8* } { i32 65535, void ()* @_GLOBAL__sub_I_1521.cpp, i8* null }]

declare void @_ZNSt8ios_base4InitC1Ev(%"class.std::ios_base::Init"* nonnull align 1 dereferenceable(1)) unnamed_addr #0

; Function Attrs: nounwind
declare void @_ZNSt8ios_base4InitD1Ev(%"class.std::ios_base::Init"* nonnull align 1 dereferenceable(1)) unnamed_addr #1

; Function Attrs: nofree nounwind
declare i32 @__cxa_atexit(void (i8*)*, i8*, i8*) local_unnamed_addr #2

; Function Attrs: mustprogress norecurse sspstrong uwtable
define dso_local i32 @main() local_unnamed_addr #3 {
  %1 = alloca [100 x i32], align 16
  %2 = alloca i32, align 4
  %3 = alloca i32, align 4
  %4 = bitcast [100 x i32]* %1 to i8*
  call void @llvm.lifetime.start.p0i8(i64 400, i8* nonnull %4) #7
  %5 = bitcast i32* %2 to i8*
  call void @llvm.lifetime.start.p0i8(i64 4, i8* nonnull %5) #7
  %6 = bitcast i32* %3 to i8*
  call void @llvm.lifetime.start.p0i8(i64 4, i8* nonnull %6) #7
  %7 = call nonnull align 8 dereferenceable(16) %"class.std::basic_istream"* @_ZNSirsERi(%"class.std::basic_istream"* nonnull align 8 dereferenceable(16) @_ZSt3cin, i32* nonnull align 4 dereferenceable(4) %2)
  %8 = call nonnull align 8 dereferenceable(16) %"class.std::basic_istream"* @_ZNSirsERi(%"class.std::basic_istream"* nonnull align 8 dereferenceable(16) %7, i32* nonnull align 4 dereferenceable(4) %3)
  %9 = load i32, i32* %2, align 4, !tbaa !5
  %10 = load i32, i32* %3, align 4
  %11 = icmp slt i32 %9, 0
  br i1 %11, label %125, label %12

12:                                               ; preds = %0
  %13 = add nuw i32 %9, 1
  %14 = zext i32 %13 to i64
  %15 = icmp ult i32 %9, 7
  br i1 %15, label %89, label %16

16:                                               ; preds = %12
  %17 = and i64 %14, 4294967288
  %18 = insertelement <4 x i32> poison, i32 %10, i32 0
  %19 = shufflevector <4 x i32> %18, <4 x i32> poison, <4 x i32> zeroinitializer
  %20 = insertelement <4 x i32> poison, i32 %10, i32 0
  %21 = shufflevector <4 x i32> %20, <4 x i32> poison, <4 x i32> zeroinitializer
  %22 = add nsw i64 %17, -8
  %23 = lshr exact i64 %22, 3
  %24 = add nuw nsw i64 %23, 1
  %25 = and i64 %24, 7
  %26 = icmp ult i64 %22, 56
  br i1 %26, label %74, label %27

27:                                               ; preds = %16
  %28 = and i64 %24, 4611686018427387896
  br label %29

29:                                               ; preds = %29, %27
  %30 = phi i64 [ 0, %27 ], [ %71, %29 ]
  %31 = phi i64 [ %28, %27 ], [ %72, %29 ]
  %32 = getelementptr inbounds [100 x i32], [100 x i32]* %1, i64 0, i64 %30
  %33 = bitcast i32* %32 to <4 x i32>*
  store <4 x i32> %19, <4 x i32>* %33, align 16, !tbaa !5
  %34 = getelementptr inbounds i32, i32* %32, i64 4
  %35 = bitcast i32* %34 to <4 x i32>*
  store <4 x i32> %21, <4 x i32>* %35, align 16, !tbaa !5
  %36 = or i64 %30, 8
  %37 = getelementptr inbounds [100 x i32], [100 x i32]* %1, i64 0, i64 %36
  %38 = bitcast i32* %37 to <4 x i32>*
  store <4 x i32> %19, <4 x i32>* %38, align 16, !tbaa !5
  %39 = getelementptr inbounds i32, i32* %37, i64 4
  %40 = bitcast i32* %39 to <4 x i32>*
  store <4 x i32> %21, <4 x i32>* %40, align 16, !tbaa !5
  %41 = or i64 %30, 16
  %42 = getelementptr inbounds [100 x i32], [100 x i32]* %1, i64 0, i64 %41
  %43 = bitcast i32* %42 to <4 x i32>*
  store <4 x i32> %19, <4 x i32>* %43, align 16, !tbaa !5
  %44 = getelementptr inbounds i32, i32* %42, i64 4
  %45 = bitcast i32* %44 to <4 x i32>*
  store <4 x i32> %21, <4 x i32>* %45, align 16, !tbaa !5
  %46 = or i64 %30, 24
  %47 = getelementptr inbounds [100 x i32], [100 x i32]* %1, i64 0, i64 %46
  %48 = bitcast i32* %47 to <4 x i32>*
  store <4 x i32> %19, <4 x i32>* %48, align 16, !tbaa !5
  %49 = getelementptr inbounds i32, i32* %47, i64 4
  %50 = bitcast i32* %49 to <4 x i32>*
  store <4 x i32> %21, <4 x i32>* %50, align 16, !tbaa !5
  %51 = or i64 %30, 32
  %52 = getelementptr inbounds [100 x i32], [100 x i32]* %1, i64 0, i64 %51
  %53 = bitcast i32* %52 to <4 x i32>*
  store <4 x i32> %19, <4 x i32>* %53, align 16, !tbaa !5
  %54 = getelementptr inbounds i32, i32* %52, i64 4
  %55 = bitcast i32* %54 to <4 x i32>*
  store <4 x i32> %21, <4 x i32>* %55, align 16, !tbaa !5
  %56 = or i64 %30, 40
  %57 = getelementptr inbounds [100 x i32], [100 x i32]* %1, i64 0, i64 %56
  %58 = bitcast i32* %57 to <4 x i32>*
  store <4 x i32> %19, <4 x i32>* %58, align 16, !tbaa !5
  %59 = getelementptr inbounds i32, i32* %57, i64 4
  %60 = bitcast i32* %59 to <4 x i32>*
  store <4 x i32> %21, <4 x i32>* %60, align 16, !tbaa !5
  %61 = or i64 %30, 48
  %62 = getelementptr inbounds [100 x i32], [100 x i32]* %1, i64 0, i64 %61
  %63 = bitcast i32* %62 to <4 x i32>*
  store <4 x i32> %19, <4 x i32>* %63, align 16, !tbaa !5
  %64 = getelementptr inbounds i32, i32* %62, i64 4
  %65 = bitcast i32* %64 to <4 x i32>*
  store <4 x i32> %21, <4 x i32>* %65, align 16, !tbaa !5
  %66 = or i64 %30, 56
  %67 = getelementptr inbounds [100 x i32], [100 x i32]* %1, i64 0, i64 %66
  %68 = bitcast i32* %67 to <4 x i32>*
  store <4 x i32> %19, <4 x i32>* %68, align 16, !tbaa !5
  %69 = getelementptr inbounds i32, i32* %67, i64 4
  %70 = bitcast i32* %69 to <4 x i32>*
  store <4 x i32> %21, <4 x i32>* %70, align 16, !tbaa !5
  %71 = add nuw i64 %30, 64
  %72 = add i64 %31, -8
  %73 = icmp eq i64 %72, 0
  br i1 %73, label %74, label %29, !llvm.loop !9

74:                                               ; preds = %29, %16
  %75 = phi i64 [ 0, %16 ], [ %71, %29 ]
  %76 = icmp eq i64 %25, 0
  br i1 %76, label %87, label %77

77:                                               ; preds = %74, %77
  %78 = phi i64 [ %84, %77 ], [ %75, %74 ]
  %79 = phi i64 [ %85, %77 ], [ %25, %74 ]
  %80 = getelementptr inbounds [100 x i32], [100 x i32]* %1, i64 0, i64 %78
  %81 = bitcast i32* %80 to <4 x i32>*
  store <4 x i32> %19, <4 x i32>* %81, align 16, !tbaa !5
  %82 = getelementptr inbounds i32, i32* %80, i64 4
  %83 = bitcast i32* %82 to <4 x i32>*
  store <4 x i32> %21, <4 x i32>* %83, align 16, !tbaa !5
  %84 = add nuw i64 %78, 8
  %85 = add i64 %79, -1
  %86 = icmp eq i64 %85, 0
  br i1 %86, label %87, label %77, !llvm.loop !12

87:                                               ; preds = %77, %74
  %88 = icmp eq i64 %17, %14
  br i1 %88, label %91, label %89

89:                                               ; preds = %12, %87
  %90 = phi i64 [ 0, %12 ], [ %17, %87 ]
  br label %120

91:                                               ; preds = %120, %87
  %92 = sext i32 %9 to i64
  %93 = getelementptr inbounds [100 x i32], [100 x i32]* %1, i64 0, i64 %92
  %94 = load i32, i32* %93, align 4, !tbaa !5
  %95 = getelementptr inbounds [100 x i32], [100 x i32]* %1, i64 0, i64 %92
  %96 = add nsw i32 %9, -1
  %97 = icmp sgt i32 %9, 1
  %98 = add nsw i32 %94, %9
  store i32 %98, i32* %95, align 4, !tbaa !5
  br i1 %97, label %99, label %125

99:                                               ; preds = %91
  %100 = zext i32 %9 to i64
  %101 = getelementptr inbounds [100 x i32], [100 x i32]* %1, i64 0, i64 %100
  br label %102

102:                                              ; preds = %99, %117
  %103 = load i32, i32* %101, align 4, !tbaa !5
  br label %104

104:                                              ; preds = %110, %102
  %105 = phi i32 [ %103, %102 ], [ %113, %110 ]
  %106 = phi i32 [ %9, %102 ], [ %107, %110 ]
  %107 = add nsw i32 %106, -1
  %108 = srem i32 %105, %96
  %109 = icmp eq i32 %108, 0
  br i1 %109, label %110, label %117

110:                                              ; preds = %104
  %111 = mul nsw i32 %105, %9
  %112 = sdiv i32 %111, %96
  %113 = add nsw i32 %10, %112
  %114 = zext i32 %107 to i64
  %115 = getelementptr inbounds [100 x i32], [100 x i32]* %1, i64 0, i64 %114
  store i32 %113, i32* %115, align 4, !tbaa !5
  %116 = icmp sgt i32 %106, 2
  br i1 %116, label %104, label %125, !llvm.loop !14

117:                                              ; preds = %104
  %118 = load i32, i32* %95, align 4, !tbaa !5
  %119 = add nsw i32 %118, %9
  store i32 %119, i32* %95, align 4, !tbaa !5
  br label %102

120:                                              ; preds = %89, %120
  %121 = phi i64 [ %123, %120 ], [ %90, %89 ]
  %122 = getelementptr inbounds [100 x i32], [100 x i32]* %1, i64 0, i64 %121
  store i32 %10, i32* %122, align 4, !tbaa !5
  %123 = add nuw nsw i64 %121, 1
  %124 = icmp eq i64 %123, %14
  br i1 %124, label %91, label %120, !llvm.loop !15

125:                                              ; preds = %110, %0, %91
  %126 = getelementptr inbounds [100 x i32], [100 x i32]* %1, i64 0, i64 1
  %127 = load i32, i32* %126, align 4, !tbaa !5
  %128 = call nonnull align 8 dereferenceable(8) %"class.std::basic_ostream"* @_ZNSolsEi(%"class.std::basic_ostream"* nonnull align 8 dereferenceable(8) @_ZSt4cout, i32 %127)
  %129 = bitcast %"class.std::basic_ostream"* %128 to i8**
  %130 = load i8*, i8** %129, align 8, !tbaa !17
  %131 = getelementptr i8, i8* %130, i64 -24
  %132 = bitcast i8* %131 to i64*
  %133 = load i64, i64* %132, align 8
  %134 = bitcast %"class.std::basic_ostream"* %128 to i8*
  %135 = add nsw i64 %133, 240
  %136 = getelementptr inbounds i8, i8* %134, i64 %135
  %137 = bitcast i8* %136 to %"class.std::ctype"**
  %138 = load %"class.std::ctype"*, %"class.std::ctype"** %137, align 8, !tbaa !19
  %139 = icmp eq %"class.std::ctype"* %138, null
  br i1 %139, label %140, label %141

140:                                              ; preds = %125
  call void @_ZSt16__throw_bad_castv() #8
  unreachable

141:                                              ; preds = %125
  %142 = getelementptr inbounds %"class.std::ctype", %"class.std::ctype"* %138, i64 0, i32 8
  %143 = load i8, i8* %142, align 8, !tbaa !23
  %144 = icmp eq i8 %143, 0
  br i1 %144, label %148, label %145

145:                                              ; preds = %141
  %146 = getelementptr inbounds %"class.std::ctype", %"class.std::ctype"* %138, i64 0, i32 9, i64 10
  %147 = load i8, i8* %146, align 1, !tbaa !25
  br label %154

148:                                              ; preds = %141
  call void @_ZNKSt5ctypeIcE13_M_widen_initEv(%"class.std::ctype"* nonnull align 8 dereferenceable(570) %138)
  %149 = bitcast %"class.std::ctype"* %138 to i8 (%"class.std::ctype"*, i8)***
  %150 = load i8 (%"class.std::ctype"*, i8)**, i8 (%"class.std::ctype"*, i8)*** %149, align 8, !tbaa !17
  %151 = getelementptr inbounds i8 (%"class.std::ctype"*, i8)*, i8 (%"class.std::ctype"*, i8)** %150, i64 6
  %152 = load i8 (%"class.std::ctype"*, i8)*, i8 (%"class.std::ctype"*, i8)** %151, align 8
  %153 = call signext i8 %152(%"class.std::ctype"* nonnull align 8 dereferenceable(570) %138, i8 signext 10)
  br label %154

154:                                              ; preds = %145, %148
  %155 = phi i8 [ %147, %145 ], [ %153, %148 ]
  %156 = call nonnull align 8 dereferenceable(8) %"class.std::basic_ostream"* @_ZNSo3putEc(%"class.std::basic_ostream"* nonnull align 8 dereferenceable(8) %128, i8 signext %155)
  %157 = call nonnull align 8 dereferenceable(8) %"class.std::basic_ostream"* @_ZNSo5flushEv(%"class.std::basic_ostream"* nonnull align 8 dereferenceable(8) %156)
  call void @llvm.lifetime.end.p0i8(i64 4, i8* nonnull %6) #7
  call void @llvm.lifetime.end.p0i8(i64 4, i8* nonnull %5) #7
  call void @llvm.lifetime.end.p0i8(i64 400, i8* nonnull %4) #7
  ret i32 0
}

; Function Attrs: argmemonly mustprogress nofree nosync nounwind willreturn
declare void @llvm.lifetime.start.p0i8(i64 immarg, i8* nocapture) #4

declare nonnull align 8 dereferenceable(16) %"class.std::basic_istream"* @_ZNSirsERi(%"class.std::basic_istream"* nonnull align 8 dereferenceable(16), i32* nonnull align 4 dereferenceable(4)) local_unnamed_addr #0

; Function Attrs: argmemonly mustprogress nofree nosync nounwind willreturn
declare void @llvm.lifetime.end.p0i8(i64 immarg, i8* nocapture) #4

declare nonnull align 8 dereferenceable(8) %"class.std::basic_ostream"* @_ZNSolsEi(%"class.std::basic_ostream"* nonnull align 8 dereferenceable(8), i32) local_unnamed_addr #0

declare nonnull align 8 dereferenceable(8) %"class.std::basic_ostream"* @_ZNSo3putEc(%"class.std::basic_ostream"* nonnull align 8 dereferenceable(8), i8 signext) local_unnamed_addr #0

declare nonnull align 8 dereferenceable(8) %"class.std::basic_ostream"* @_ZNSo5flushEv(%"class.std::basic_ostream"* nonnull align 8 dereferenceable(8)) local_unnamed_addr #0

; Function Attrs: noreturn
declare void @_ZSt16__throw_bad_castv() local_unnamed_addr #5

declare void @_ZNKSt5ctypeIcE13_M_widen_initEv(%"class.std::ctype"* nonnull align 8 dereferenceable(570)) local_unnamed_addr #0

; Function Attrs: sspstrong uwtable
define internal void @_GLOBAL__sub_I_1521.cpp() #6 section ".text.startup" {
  tail call void @_ZNSt8ios_base4InitC1Ev(%"class.std::ios_base::Init"* nonnull align 1 dereferenceable(1) @_ZStL8__ioinit)
  %1 = tail call i32 @__cxa_atexit(void (i8*)* bitcast (void (%"class.std::ios_base::Init"*)* @_ZNSt8ios_base4InitD1Ev to void (i8*)*), i8* getelementptr inbounds (%"class.std::ios_base::Init", %"class.std::ios_base::Init"* @_ZStL8__ioinit, i64 0, i32 0), i8* nonnull @__dso_handle) #7
  ret void
}


!llvm.module.flags = !{!0, !1, !2, !3}
!llvm.ident = !{!4}

!0 = !{i32 1, !"wchar_size", i32 4}
!1 = !{i32 7, !"PIC Level", i32 2}
!2 = !{i32 7, !"PIE Level", i32 2}
!3 = !{i32 7, !"uwtable", i32 1}
!4 = !{!"clang version 13.0.0"}
!5 = !{!6, !6, i64 0}
!6 = !{!"int", !7, i64 0}
!7 = !{!"omnipotent char", !8, i64 0}
!8 = !{!"Simple C++ TBAA"}
!9 = distinct !{!9, !10, !11}
!10 = !{!"llvm.loop.mustprogress"}
!11 = !{!"llvm.loop.isvectorized", i32 1}
!12 = distinct !{!12, !13}
!13 = !{!"llvm.loop.unroll.disable"}
!14 = distinct !{!14, !10}
!15 = distinct !{!15, !10, !16, !11}
!16 = !{!"llvm.loop.unroll.runtime.disable"}
!17 = !{!18, !18, i64 0}
!18 = !{!"vtable pointer", !8, i64 0}
!19 = !{!20, !21, i64 240}
!20 = !{!"_ZTSSt9basic_iosIcSt11char_traitsIcEE", !21, i64 216, !7, i64 224, !22, i64 225, !21, i64 232, !21, i64 240, !21, i64 248, !21, i64 256}
!21 = !{!"any pointer", !7, i64 0}
!22 = !{!"bool", !7, i64 0}
!23 = !{!24, !7, i64 56}
!24 = !{!"_ZTSSt5ctypeIcE", !21, i64 16, !22, i64 24, !21, i64 32, !21, i64 40, !21, i64 48, !7, i64 56, !7, i64 57, !7, i64 313, !7, i64 569}
!25 = !{!7, !7, i64 0}
